target datalayout = "e-m:e-p270:32:32-p271:32:32-p272:64:64-i64:64-i128:128-f80:128-n8:16:32:64-S128"
target triple = "x86_64-pc-linux-gnu"

%struct.http2_session_data = type { ptr, ptr, ptr, ptr }

; Function Attrs: nounwind uwtable
define internal void @initialize_nghttp2_session(ptr noundef %0) #0 {
  %2 = alloca ptr, align 8
  %3 = alloca ptr, align 8
  store ptr %0, ptr %2, align 8, !tbaa !29
  call void @llvm.lifetime.start.p0(i64 8, ptr %3) #10
  %4 = call i32 @nghttp2_session_callbacks_new(ptr noundef %3)
  %5 = load ptr, ptr %3, align 8, !tbaa !55
  call void @nghttp2_session_callbacks_set_send_callback2(ptr noundef %5, ptr noundef @send_callback)
  %6 = load ptr, ptr %3, align 8, !tbaa !55
  call void @nghttp2_session_callbacks_set_on_frame_recv_callback(ptr noundef %6, ptr noundef @on_frame_recv_callback)
  %7 = load ptr, ptr %3, align 8, !tbaa !55
  call void @nghttp2_session_callbacks_set_on_data_chunk_recv_callback(ptr noundef %7, ptr noundef @on_data_chunk_recv_callback)
  %8 = load ptr, ptr %3, align 8, !tbaa !55
  call void @nghttp2_session_callbacks_set_on_stream_close_callback(ptr noundef %8, ptr noundef @on_stream_close_callback)
  %9 = load ptr, ptr %3, align 8, !tbaa !55
  call void @nghttp2_session_callbacks_set_on_header_callback(ptr noundef %9, ptr noundef @on_header_callback)
  %10 = load ptr, ptr %3, align 8, !tbaa !55
  call void @nghttp2_session_callbacks_set_on_begin_headers_callback(ptr noundef %10, ptr noundef @on_begin_headers_callback)
  %11 = load ptr, ptr %2, align 8, !tbaa !29
  %12 = getelementptr inbounds nuw %struct.http2_session_data, ptr %11, i32 0, i32 0
  %13 = load ptr, ptr %3, align 8, !tbaa !55
  %14 = load ptr, ptr %2, align 8, !tbaa !29
  %15 = call i32 @nghttp2_session_client_new(ptr noundef %12, ptr noundef %13, ptr noundef %14)
  %16 = load ptr, ptr %3, align 8, !tbaa !55
  call void @nghttp2_session_callbacks_del(ptr noundef %16)
  call void @llvm.lifetime.end.p0(i64 8, ptr %3) #10
  ret void
}