; Function Attrs: nounwind uwtable
define internal fastcc void @initialize_nghttp2_session(ptr noundef %0) unnamed_addr #0 {
  %2 = alloca ptr, align 8
  call void @llvm.lifetime.start.p0(i64 8, ptr nonnull %2) #18
  %3 = call i32 @nghttp2_session_callbacks_new(ptr noundef nonnull %2) #18
  %4 = load ptr, ptr %2, align 8, !tbaa !39
  call void @nghttp2_session_callbacks_set_send_callback2(ptr noundef %4, ptr noundef nonnull @send_callback) #18
  %5 = load ptr, ptr %2, align 8, !tbaa !39
  call void @nghttp2_session_callbacks_set_on_frame_recv_callback(ptr noundef %5, ptr noundef nonnull @on_frame_recv_callback) #18
  %6 = load ptr, ptr %2, align 8, !tbaa !39
  call void @nghttp2_session_callbacks_set_on_data_chunk_recv_callback(ptr noundef %6, ptr noundef nonnull @on_data_chunk_recv_callback) #18
  %7 = load ptr, ptr %2, align 8, !tbaa !39
  call void @nghttp2_session_callbacks_set_on_stream_close_callback(ptr noundef %7, ptr noundef nonnull @on_stream_close_callback) #18
  %8 = load ptr, ptr %2, align 8, !tbaa !39
  call void @nghttp2_session_callbacks_set_on_header_callback(ptr noundef %8, ptr noundef nonnull @on_header_callback) #18
  %9 = load ptr, ptr %2, align 8, !tbaa !39
  call void @nghttp2_session_callbacks_set_on_begin_headers_callback(ptr noundef %9, ptr noundef nonnull @on_begin_headers_callback) #18
  %10 = load ptr, ptr %2, align 8, !tbaa !39
  %11 = call i32 @nghttp2_session_client_new(ptr noundef %0, ptr noundef %10, ptr noundef %0) #18
  %12 = load ptr, ptr %2, align 8, !tbaa !39
  call void @nghttp2_session_callbacks_del(ptr noundef %12) #18
  call void @llvm.lifetime.end.p0(i64 8, ptr nonnull %2) #18
  ret void
}